target datalayout = "e-m:e-p270:32:32-p271:32:32-p272:64:64-i64:64-i128:128-f80:128-n8:16:32:64-S128"
target triple = "x86_64-pc-linux-gnu"

%struct.RawSeqStore_t = type { ptr, i64, i64, i64, i64 }
%struct.rawSeq = type { i32, i32, i32 }

; Function Attrs: nounwind uwtable
define void @ZSTD_ldm_skipSequences(ptr noundef %0, i64 noundef %1, i32 noundef %2) #0 {
  %4 = alloca ptr, align 8
  %5 = alloca i64, align 8
  %6 = alloca i32, align 4
  %7 = alloca ptr, align 8
  %8 = alloca i32, align 4
  store ptr %0, ptr %4, align 8, !tbaa !3
  store i64 %1, ptr %5, align 8, !tbaa !17
  store i32 %2, ptr %6, align 4, !tbaa !22
  br label %9

9:                                                ; preds = %110, %3
  %10 = load i64, ptr %5, align 8, !tbaa !17
  %11 = icmp ugt i64 %10, 0
  br i1 %11, label %12, label %20

12:                                               ; preds = %9
  %13 = load ptr, ptr %4, align 8, !tbaa !3
  %14 = getelementptr inbounds nuw %struct.RawSeqStore_t, ptr %13, i32 0, i32 1
  %15 = load i64, ptr %14, align 8, !tbaa !77
  %16 = load ptr, ptr %4, align 8, !tbaa !3
  %17 = getelementptr inbounds nuw %struct.RawSeqStore_t, ptr %16, i32 0, i32 3
  %18 = load i64, ptr %17, align 8, !tbaa !44
  %19 = icmp ult i64 %15, %18
  br label %20

20:                                               ; preds = %12, %9
  %21 = phi i1 [ false, %9 ], [ %19, %12 ]
  br i1 %21, label %22, label %111

22:                                               ; preds = %20
  call void @llvm.lifetime.start.p0(i64 8, ptr %7) #12
  %23 = load ptr, ptr %4, align 8, !tbaa !3
  %24 = getelementptr inbounds nuw %struct.RawSeqStore_t, ptr %23, i32 0, i32 0
  %25 = load ptr, ptr %24, align 8, !tbaa !49
  %26 = load ptr, ptr %4, align 8, !tbaa !3
  %27 = getelementptr inbounds nuw %struct.RawSeqStore_t, ptr %26, i32 0, i32 1
  %28 = load i64, ptr %27, align 8, !tbaa !77
  %29 = getelementptr inbounds nuw %struct.rawSeq, ptr %25, i64 %28
  store ptr %29, ptr %7, align 8, !tbaa !3
  %30 = load i64, ptr %5, align 8, !tbaa !17
  %31 = load ptr, ptr %7, align 8, !tbaa !3
  %32 = getelementptr inbounds nuw %struct.rawSeq, ptr %31, i32 0, i32 1
  %33 = load i32, ptr %32, align 4, !tbaa !50
  %34 = zext i32 %33 to i64
  %35 = icmp ule i64 %30, %34
  br i1 %35, label %36, label %43

36:                                               ; preds = %22
  %37 = load i64, ptr %5, align 8, !tbaa !17
  %38 = trunc i64 %37 to i32
  %39 = load ptr, ptr %7, align 8, !tbaa !3
  %40 = getelementptr inbounds nuw %struct.rawSeq, ptr %39, i32 0, i32 1
  %41 = load i32, ptr %40, align 4, !tbaa !50
  %42 = sub i32 %41, %38
  store i32 %42, ptr %40, align 4, !tbaa !50
  store i32 1, ptr %8, align 4
  br label %108

43:                                               ; preds = %22
  %44 = load ptr, ptr %7, align 8, !tbaa !3
  %45 = getelementptr inbounds nuw %struct.rawSeq, ptr %44, i32 0, i32 1
  %46 = load i32, ptr %45, align 4, !tbaa !50
  %47 = zext i32 %46 to i64
  %48 = load i64, ptr %5, align 8, !tbaa !17
  %49 = sub i64 %48, %47
  store i64 %49, ptr %5, align 8, !tbaa !17
  %50 = load ptr, ptr %7, align 8, !tbaa !3
  %51 = getelementptr inbounds nuw %struct.rawSeq, ptr %50, i32 0, i32 1
  store i32 0, ptr %51, align 4, !tbaa !50
  %52 = load i64, ptr %5, align 8, !tbaa !17
  %53 = load ptr, ptr %7, align 8, !tbaa !3
  %54 = getelementptr inbounds nuw %struct.rawSeq, ptr %53, i32 0, i32 2
  %55 = load i32, ptr %54, align 4, !tbaa !73
  %56 = zext i32 %55 to i64
  %57 = icmp ult i64 %52, %56
  br i1 %57, label %58, label %95

58:                                               ; preds = %43
  %59 = load i64, ptr %5, align 8, !tbaa !17
  %60 = trunc i64 %59 to i32
  %61 = load ptr, ptr %7, align 8, !tbaa !3
  %62 = getelementptr inbounds nuw %struct.rawSeq, ptr %61, i32 0, i32 2
  %63 = load i32, ptr %62, align 4, !tbaa !73
  %64 = sub i32 %63, %60
  store i32 %64, ptr %62, align 4, !tbaa !73
  %65 = load ptr, ptr %7, align 8, !tbaa !3
  %66 = getelementptr inbounds nuw %struct.rawSeq, ptr %65, i32 0, i32 2
  %67 = load i32, ptr %66, align 4, !tbaa !73
  %68 = load i32, ptr %6, align 4, !tbaa !22
  %69 = icmp ult i32 %67, %68
  br i1 %69, label %70, label %94

70:                                               ; preds = %58
  %71 = load ptr, ptr %4, align 8, !tbaa !3
  %72 = getelementptr inbounds nuw %struct.RawSeqStore_t, ptr %71, i32 0, i32 1
  %73 = load i64, ptr %72, align 8, !tbaa !77
  %74 = add i64 %73, 1
  %75 = load ptr, ptr %4, align 8, !tbaa !3
  %76 = getelementptr inbounds nuw %struct.RawSeqStore_t, ptr %75, i32 0, i32 3
  %77 = load i64, ptr %76, align 8, !tbaa !44
  %78 = icmp ult i64 %74, %77
  br i1 %78, label %79, label %89

79:                                               ; preds = %70
  %80 = load ptr, ptr %7, align 8, !tbaa !3
  %81 = getelementptr inbounds %struct.rawSeq, ptr %80, i64 0
  %82 = getelementptr inbounds nuw %struct.rawSeq, ptr %81, i32 0, i32 2
  %83 = load i32, ptr %82, align 4, !tbaa !73
  %84 = load ptr, ptr %7, align 8, !tbaa !3
  %85 = getelementptr inbounds %struct.rawSeq, ptr %84, i64 1
  %86 = getelementptr inbounds nuw %struct.rawSeq, ptr %85, i32 0, i32 1
  %87 = load i32, ptr %86, align 4, !tbaa !50
  %88 = add i32 %87, %83
  store i32 %88, ptr %86, align 4, !tbaa !50
  br label %89

89:                                               ; preds = %79, %70
  %90 = load ptr, ptr %4, align 8, !tbaa !3
  %91 = getelementptr inbounds nuw %struct.RawSeqStore_t, ptr %90, i32 0, i32 1
  %92 = load i64, ptr %91, align 8, !tbaa !77
  %93 = add i64 %92, 1
  store i64 %93, ptr %91, align 8, !tbaa !77
  br label %94

94:                                               ; preds = %89, %58
  store i32 1, ptr %8, align 4
  br label %108

95:                                               ; preds = %43
  %96 = load ptr, ptr %7, align 8, !tbaa !3
  %97 = getelementptr inbounds nuw %struct.rawSeq, ptr %96, i32 0, i32 2
  %98 = load i32, ptr %97, align 4, !tbaa !73
  %99 = zext i32 %98 to i64
  %100 = load i64, ptr %5, align 8, !tbaa !17
  %101 = sub i64 %100, %99
  store i64 %101, ptr %5, align 8, !tbaa !17
  %102 = load ptr, ptr %7, align 8, !tbaa !3
  %103 = getelementptr inbounds nuw %struct.rawSeq, ptr %102, i32 0, i32 2
  store i32 0, ptr %103, align 4, !tbaa !73
  %104 = load ptr, ptr %4, align 8, !tbaa !3
  %105 = getelementptr inbounds nuw %struct.RawSeqStore_t, ptr %104, i32 0, i32 1
  %106 = load i64, ptr %105, align 8, !tbaa !77
  %107 = add i64 %106, 1
  store i64 %107, ptr %105, align 8, !tbaa !77
  store i32 0, ptr %8, align 4
  br label %108

108:                                              ; preds = %95, %94, %36
  call void @llvm.lifetime.end.p0(i64 8, ptr %7) #12
  %109 = load i32, ptr %8, align 4
  switch i32 %109, label %112 [
    i32 0, label %110
    i32 1, label %111
  ]

110:                                              ; preds = %108
  br label %9, !llvm.loop !78

111:                                              ; preds = %108, %20
  ret void

112:                                              ; preds = %108
  unreachable
}